; Function Attrs: mustprogress nofree norecurse nosync nounwind willreturn memory(read, inaccessiblemem: none) uwtable
define internal range(i32 -1, 2) i32 @macaddr_fast_cmp(i64 noundef %0, i64 noundef %1, ptr readnone captures(none) %2) #4 {
  %4 = inttoptr i64 %0 to ptr
  %5 = inttoptr i64 %1 to ptr
  %6 = load i8, ptr %4, align 1
  %7 = zext i8 %6 to i64
  %8 = shl nuw nsw i64 %7, 16
  %9 = getelementptr inbounds nuw i8, ptr %4, i64 1
  %10 = load i8, ptr %9, align 1
  %11 = zext i8 %10 to i64
  %12 = shl nuw nsw i64 %11, 8
  %13 = or disjoint i64 %12, %8
  %14 = getelementptr inbounds nuw i8, ptr %4, i64 2
  %15 = load i8, ptr %14, align 1
  %16 = zext i8 %15 to i64
  %17 = or disjoint i64 %13, %16
  %18 = load i8, ptr %5, align 1
  %19 = zext i8 %18 to i64
  %20 = shl nuw nsw i64 %19, 16
  %21 = getelementptr inbounds nuw i8, ptr %5, i64 1
  %22 = load i8, ptr %21, align 1
  %23 = zext i8 %22 to i64
  %24 = shl nuw nsw i64 %23, 8
  %25 = or disjoint i64 %24, %20
  %26 = getelementptr inbounds nuw i8, ptr %5, i64 2
  %27 = load i8, ptr %26, align 1
  %28 = zext i8 %27 to i64
  %29 = or disjoint i64 %25, %28
  %30 = icmp samesign ult i64 %17, %29
  br i1 %30, label %macaddr_cmp_internal.exit, label %31

31:                                               ; preds = %3
  %32 = icmp samesign ugt i64 %17, %29
  br i1 %32, label %macaddr_cmp_internal.exit, label %33

33:                                               ; preds = %31
  %34 = getelementptr inbounds nuw i8, ptr %4, i64 3
  %35 = load i8, ptr %34, align 1
  %36 = zext i8 %35 to i64
  %37 = shl nuw nsw i64 %36, 16
  %38 = getelementptr inbounds nuw i8, ptr %4, i64 4
  %39 = load i8, ptr %38, align 1
  %40 = zext i8 %39 to i64
  %41 = shl nuw nsw i64 %40, 8
  %42 = or disjoint i64 %41, %37
  %43 = getelementptr inbounds nuw i8, ptr %4, i64 5
  %44 = load i8, ptr %43, align 1
  %45 = zext i8 %44 to i64
  %46 = or disjoint i64 %42, %45
  %47 = getelementptr inbounds nuw i8, ptr %5, i64 3
  %48 = load i8, ptr %47, align 1
  %49 = zext i8 %48 to i64
  %50 = shl nuw nsw i64 %49, 16
  %51 = getelementptr inbounds nuw i8, ptr %5, i64 4
  %52 = load i8, ptr %51, align 1
  %53 = zext i8 %52 to i64
  %54 = shl nuw nsw i64 %53, 8
  %55 = or disjoint i64 %54, %50
  %56 = getelementptr inbounds nuw i8, ptr %5, i64 5
  %57 = load i8, ptr %56, align 1
  %58 = zext i8 %57 to i64
  %59 = or disjoint i64 %55, %58
  %60 = icmp samesign ult i64 %46, %59
  br i1 %60, label %macaddr_cmp_internal.exit, label %61

61:                                               ; preds = %33
  %62 = icmp samesign ugt i64 %46, %59
  %..i = zext i1 %62 to i32
  br label %macaddr_cmp_internal.exit

macaddr_cmp_internal.exit:                        ; preds = %3, %31, %33, %61
  %.0.i = phi i32 [ -1, %3 ], [ 1, %31 ], [ -1, %33 ], [ %..i, %61 ]
  ret i32 %.0.i
}